; Function Attrs: mustprogress nofree nounwind willreturn memory(write, argmem: none, inaccessiblemem: readwrite) uwtable
define noundef ptr @RTreeLeafListAdd(ptr noundef %0, ptr noundef %1) local_unnamed_addr #0 {
  %.not = icmp eq ptr %1, null
  br i1 %.not, label %7, label %3

3:                                                ; preds = %2
  %4 = tail call noalias dereferenceable_or_null(16) ptr @calloc(i64 noundef 1, i64 noundef 16) #7
  %.not.i = icmp eq ptr %4, null
  br i1 %.not.i, label %RTreeNewLeafList.exit, label %5

5:                                                ; preds = %3
  %6 = getelementptr inbounds nuw i8, ptr %4, i64 8
  store ptr %1, ptr %6, align 8, !tbaa !3
  br label %RTreeNewLeafList.exit

RTreeNewLeafList.exit:                            ; preds = %3, %5
  store ptr %0, ptr %4, align 8, !tbaa !10
  br label %7

7:                                                ; preds = %2, %RTreeNewLeafList.exit
  %.0 = phi ptr [ %4, %RTreeNewLeafList.exit ], [ %0, %2 ]
  ret ptr %.0
}